target datalayout = "e-m:e-p270:32:32-p271:32:32-p272:64:64-i64:64-i128:128-f80:128-n8:16:32:64-S128"
target triple = "x86_64-pc-linux-gnu"

%struct.AVFormatContext = type { ptr, ptr, ptr, ptr, ptr, i32, i32, ptr, i32, ptr, i32, ptr, ptr, i64, i64, i64, i32, i32, i32, i64, i64, ptr, i32, i32, ptr, i32, i32, i32, i32, ptr, i64, i32, i32, %struct.AVIOInterruptCB, i32, i32, i32, i32, i64, i32, i32, i32, i32, i32, i32, i32, i32, i32, i32, i32, i32, i64, i32, i32, i32, i32, i32, ptr, ptr, ptr, ptr, i32, ptr, ptr, ptr, ptr, i32, ptr, ptr, i64, ptr, ptr, ptr, i64 }
%struct.AVIOInterruptCB = type { ptr, ptr }
%struct.ASFContext = type { i32, i32, i32, i64, i64, i32, i64, i32, i32, i32, i64, i64, i64, i64, i64, i64, i32, [128 x ptr], [128 x %struct.ASFStreamData], i32, i32, i64, i64, i8, i32, i64, i32, i32, i64, i32, i16, i64, i32, i32 }
%struct.ASFStreamData = type { [32 x i8], ptr, %struct.AVRational }
%struct.AVRational = type { i32, i32 }
%struct.tm = type { i32, i32, i32, i32, i32, i32, i32, i32, i32, i64, ptr }

@.str.57 = private unnamed_addr constant [21 x i8] c"av_dict_set failed.\0A\00", align 1
@.str.62 = private unnamed_addr constant [18 x i8] c"%Y-%m-%d %H:%M:%S\00", align 1
@.str.63 = private unnamed_addr constant [14 x i8] c"creation_time\00", align 1

; Function Attrs: nounwind uwtable
define internal i32 @asf_read_properties(ptr noundef %0, ptr noundef %1) #0 {
  %3 = alloca ptr, align 8
  %4 = alloca ptr, align 8
  %5 = alloca ptr, align 8
  %6 = alloca ptr, align 8
  %7 = alloca i64, align 8
  %8 = alloca %struct.tm, align 8
  %9 = alloca ptr, align 8
  %10 = alloca [64 x i8], align 16
  store ptr %0, ptr %3, align 8, !tbaa !13
  store ptr %1, ptr %4, align 8, !tbaa !34
  call void @llvm.lifetime.start.p0(i64 8, ptr %5) #10
  %11 = load ptr, ptr %3, align 8, !tbaa !13
  %12 = getelementptr inbounds nuw %struct.AVFormatContext, ptr %11, i32 0, i32 3
  %13 = load ptr, ptr %12, align 8, !tbaa !15
  store ptr %13, ptr %5, align 8, !tbaa !30
  call void @llvm.lifetime.start.p0(i64 8, ptr %6) #10
  %14 = load ptr, ptr %3, align 8, !tbaa !13
  %15 = getelementptr inbounds nuw %struct.AVFormatContext, ptr %14, i32 0, i32 4
  %16 = load ptr, ptr %15, align 8, !tbaa !32
  store ptr %16, ptr %6, align 8, !tbaa !33
  call void @llvm.lifetime.start.p0(i64 8, ptr %7) #10
  %17 = load ptr, ptr %6, align 8, !tbaa !33
  %18 = call i64 @avio_rl64(ptr noundef %17)
  %19 = load ptr, ptr %6, align 8, !tbaa !33
  %20 = call i64 @avio_skip(ptr noundef %19, i64 noundef 16)
  %21 = load ptr, ptr %6, align 8, !tbaa !33
  %22 = call i64 @avio_skip(ptr noundef %21, i64 noundef 8)
  %23 = load ptr, ptr %6, align 8, !tbaa !33
  %24 = call i64 @avio_rl64(ptr noundef %23)
  store i64 %24, ptr %7, align 8, !tbaa !47
  %25 = load ptr, ptr %5, align 8, !tbaa !30
  %26 = getelementptr inbounds nuw %struct.ASFContext, ptr %25, i32 0, i32 8
  %27 = load i32, ptr %26, align 4, !tbaa !50
  %28 = and i32 %27, 1
  %29 = icmp ne i32 %28, 0
  br i1 %29, label %62, label %30

30:                                               ; preds = %2
  call void @llvm.lifetime.start.p0(i64 56, ptr %8) #10
  call void @llvm.lifetime.start.p0(i64 8, ptr %9) #10
  call void @llvm.lifetime.start.p0(i64 64, ptr %10) #10
  %31 = load i64, ptr %7, align 8, !tbaa !47
  %32 = sdiv i64 %31, 10000000
  store i64 %32, ptr %7, align 8, !tbaa !47
  %33 = load i64, ptr %7, align 8, !tbaa !47
  %34 = sub nsw i64 %33, 11644473600
  store i64 %34, ptr %7, align 8, !tbaa !47
  %35 = call ptr @gmtime_r(ptr noundef %7, ptr noundef %8) #10
  store ptr %35, ptr %9, align 8, !tbaa !150
  %36 = load ptr, ptr %9, align 8, !tbaa !150
  %37 = icmp ne ptr %36, null
  br i1 %37, label %38, label %46

38:                                               ; preds = %30
  %39 = getelementptr inbounds [64 x i8], ptr %10, i64 0, i64 0
  %40 = load ptr, ptr %9, align 8, !tbaa !150
  %41 = call i64 @strftime(ptr noundef %39, i64 noundef 64, ptr noundef @.str.62, ptr noundef %40) #10
  %42 = icmp ne i64 %41, 0
  br i1 %42, label %45, label %43

43:                                               ; preds = %38
  %44 = getelementptr inbounds [64 x i8], ptr %10, i64 0, i64 0
  store i8 0, ptr %44, align 16, !tbaa !131
  br label %45

45:                                               ; preds = %43, %38
  br label %48

46:                                               ; preds = %30
  %47 = getelementptr inbounds [64 x i8], ptr %10, i64 0, i64 0
  store i8 0, ptr %47, align 16, !tbaa !131
  br label %48

48:                                               ; preds = %46, %45
  %49 = getelementptr inbounds [64 x i8], ptr %10, i64 0, i64 0
  %50 = load i8, ptr %49, align 16, !tbaa !131
  %51 = icmp ne i8 %50, 0
  br i1 %51, label %52, label %61

52:                                               ; preds = %48
  %53 = load ptr, ptr %3, align 8, !tbaa !13
  %54 = getelementptr inbounds nuw %struct.AVFormatContext, ptr %53, i32 0, i32 29
  %55 = getelementptr inbounds [64 x i8], ptr %10, i64 0, i64 0
  %56 = call i32 @av_dict_set(ptr noundef %54, ptr noundef @.str.63, ptr noundef %55, i32 noundef 0)
  %57 = icmp slt i32 %56, 0
  br i1 %57, label %58, label %60

58:                                               ; preds = %52
  %59 = load ptr, ptr %3, align 8, !tbaa !13
  call void (ptr, i32, ptr, ...) @av_log(ptr noundef %59, i32 noundef 24, ptr noundef @.str.57)
  br label %60

60:                                               ; preds = %58, %52
  br label %61

61:                                               ; preds = %60, %48
  call void @llvm.lifetime.end.p0(i64 64, ptr %10) #10
  call void @llvm.lifetime.end.p0(i64 8, ptr %9) #10
  call void @llvm.lifetime.end.p0(i64 56, ptr %8) #10
  br label %62

62:                                               ; preds = %61, %2
  %63 = load ptr, ptr %6, align 8, !tbaa !33
  %64 = call i64 @avio_rl64(ptr noundef %63)
  %65 = load ptr, ptr %5, align 8, !tbaa !30
  %66 = getelementptr inbounds nuw %struct.ASFContext, ptr %65, i32 0, i32 4
  store i64 %64, ptr %66, align 8, !tbaa !139
  %67 = load ptr, ptr %6, align 8, !tbaa !33
  %68 = call i64 @avio_rl64(ptr noundef %67)
  %69 = udiv i64 %68, 10000
  %70 = trunc i64 %69 to i32
  %71 = load ptr, ptr %5, align 8, !tbaa !30
  %72 = getelementptr inbounds nuw %struct.ASFContext, ptr %71, i32 0, i32 7
  store i32 %70, ptr %72, align 8, !tbaa !135
  %73 = load ptr, ptr %6, align 8, !tbaa !33
  %74 = call i64 @avio_skip(ptr noundef %73, i64 noundef 8)
  %75 = load ptr, ptr %6, align 8, !tbaa !33
  %76 = call i64 @avio_rl64(ptr noundef %75)
  %77 = load ptr, ptr %5, align 8, !tbaa !30
  %78 = getelementptr inbounds nuw %struct.ASFContext, ptr %77, i32 0, i32 3
  store i64 %76, ptr %78, align 8, !tbaa !36
  %79 = load ptr, ptr %5, align 8, !tbaa !30
  %80 = getelementptr inbounds nuw %struct.ASFContext, ptr %79, i32 0, i32 3
  %81 = load i64, ptr %80, align 8, !tbaa !36
  %82 = load ptr, ptr %5, align 8, !tbaa !30
  %83 = getelementptr inbounds nuw %struct.ASFContext, ptr %82, i32 0, i32 7
  %84 = load i32, ptr %83, align 8, !tbaa !135
  %85 = sext i32 %84 to i64
  %86 = sub i64 %85, %81
  %87 = trunc i64 %86 to i32
  store i32 %87, ptr %83, align 8, !tbaa !135
  %88 = load ptr, ptr %6, align 8, !tbaa !33
  %89 = call i32 @avio_rl32(ptr noundef %88)
  %90 = load ptr, ptr %5, align 8, !tbaa !30
  %91 = getelementptr inbounds nuw %struct.ASFContext, ptr %90, i32 0, i32 8
  store i32 %89, ptr %91, align 4, !tbaa !50
  %92 = load ptr, ptr %6, align 8, !tbaa !33
  %93 = call i64 @avio_skip(ptr noundef %92, i64 noundef 4)
  %94 = load ptr, ptr %6, align 8, !tbaa !33
  %95 = call i32 @avio_rl32(ptr noundef %94)
  %96 = load ptr, ptr %5, align 8, !tbaa !30
  %97 = getelementptr inbounds nuw %struct.ASFContext, ptr %96, i32 0, i32 5
  store i32 %95, ptr %97, align 8, !tbaa !89
  %98 = load ptr, ptr %6, align 8, !tbaa !33
  %99 = call i64 @avio_skip(ptr noundef %98, i64 noundef 4)
  call void @llvm.lifetime.end.p0(i64 8, ptr %7) #10
  call void @llvm.lifetime.end.p0(i64 8, ptr %6) #10
  call void @llvm.lifetime.end.p0(i64 8, ptr %5) #10
  ret i32 0
}