; Function Attrs: nounwind uwtable
define internal noundef i32 @asf_read_properties(ptr noundef %0, ptr readnone captures(none) %1) #1 {
  %3 = alloca i64, align 8
  %4 = alloca %struct.tm, align 8
  %5 = alloca [64 x i8], align 16
  %6 = getelementptr inbounds nuw i8, ptr %0, i64 24
  %7 = load ptr, ptr %6, align 8, !tbaa !11
  %8 = getelementptr inbounds nuw i8, ptr %0, i64 32
  %9 = load ptr, ptr %8, align 8, !tbaa !26
  call void @llvm.lifetime.start.p0(i64 8, ptr nonnull %3) #12
  %10 = tail call i64 @avio_rl64(ptr noundef %9) #12
  %11 = tail call i64 @avio_skip(ptr noundef %9, i64 noundef 16) #12
  %12 = tail call i64 @avio_skip(ptr noundef %9, i64 noundef 8) #12
  %13 = tail call i64 @avio_rl64(ptr noundef %9) #12
  store i64 %13, ptr %3, align 8, !tbaa !133
  %14 = getelementptr inbounds nuw i8, ptr %7, i64 52
  %15 = load i32, ptr %14, align 4, !tbaa !42
  %16 = and i32 %15, 1
  %.not = icmp eq i32 %16, 0
  br i1 %.not, label %17, label %28

17:                                               ; preds = %2
  call void @llvm.lifetime.start.p0(i64 56, ptr nonnull %4) #12
  call void @llvm.lifetime.start.p0(i64 64, ptr nonnull %5) #12
  %18 = sdiv i64 %13, 10000000
  %19 = add nsw i64 %18, -11644473600
  store i64 %19, ptr %3, align 8, !tbaa !133
  %20 = call ptr @gmtime_r(ptr noundef nonnull %3, ptr noundef nonnull %4) #12
  %.not26 = icmp eq ptr %20, null
  br i1 %.not26, label %.thread, label %21

21:                                               ; preds = %17
  %22 = call i64 @strftime(ptr noundef nonnull %5, i64 noundef 64, ptr noundef nonnull @.str.62, ptr noundef nonnull %20) #12
  %.not27 = icmp eq i64 %22, 0
  %.pr = load i8, ptr %5, align 16
  %.not28 = icmp eq i8 %.pr, 0
  %or.cond = select i1 %.not27, i1 true, i1 %.not28
  br i1 %or.cond, label %.thread, label %23

23:                                               ; preds = %21
  %24 = getelementptr inbounds nuw i8, ptr %0, i64 192
  %25 = call i32 @av_dict_set(ptr noundef nonnull %24, ptr noundef nonnull @.str.63, ptr noundef nonnull %5, i32 noundef 0) #12
  %26 = icmp slt i32 %25, 0
  br i1 %26, label %27, label %.thread

27:                                               ; preds = %23
  call void (ptr, i32, ptr, ...) @av_log(ptr noundef nonnull %0, i32 noundef 24, ptr noundef nonnull @.str.57) #12
  br label %.thread

.thread:                                          ; preds = %17, %21, %23, %27
  call void @llvm.lifetime.end.p0(i64 64, ptr nonnull %5) #12
  call void @llvm.lifetime.end.p0(i64 56, ptr nonnull %4) #12
  br label %28

28:                                               ; preds = %.thread, %2
  %29 = call i64 @avio_rl64(ptr noundef %9) #12
  %30 = getelementptr inbounds nuw i8, ptr %7, i64 24
  store i64 %29, ptr %30, align 8, !tbaa !140
  %31 = call i64 @avio_rl64(ptr noundef %9) #12
  %32 = udiv i64 %31, 10000
  %33 = trunc i64 %32 to i32
  %34 = getelementptr inbounds nuw i8, ptr %7, i64 48
  store i32 %33, ptr %34, align 8, !tbaa !137
  %35 = call i64 @avio_skip(ptr noundef %9, i64 noundef 8) #12
  %36 = call i64 @avio_rl64(ptr noundef %9) #12
  %37 = getelementptr inbounds nuw i8, ptr %7, i64 16
  store i64 %36, ptr %37, align 8, !tbaa !27
  %38 = load i32, ptr %34, align 8, !tbaa !137
  %39 = trunc i64 %36 to i32
  %40 = sub i32 %38, %39
  store i32 %40, ptr %34, align 8, !tbaa !137
  %41 = call i32 @avio_rl32(ptr noundef %9) #12
  store i32 %41, ptr %14, align 4, !tbaa !42
  %42 = call i64 @avio_skip(ptr noundef %9, i64 noundef 4) #12
  %43 = call i32 @avio_rl32(ptr noundef %9) #12
  %44 = getelementptr inbounds nuw i8, ptr %7, i64 32
  store i32 %43, ptr %44, align 8, !tbaa !87
  %45 = call i64 @avio_skip(ptr noundef %9, i64 noundef 4) #12
  call void @llvm.lifetime.end.p0(i64 8, ptr nonnull %3) #12
  ret i32 0
}